target datalayout = "e-m:e-p270:32:32-p271:32:32-p272:64:64-i64:64-i128:128-f80:128-n8:16:32:64-S128"
target triple = "x86_64-pc-linux-gnu"

%struct.AVFilterContext = type { ptr, ptr, ptr, ptr, ptr, i32, ptr, ptr, i32, ptr, ptr, i32, i32, ptr, ptr, ptr, ptr, i32, ptr, i32, i32 }
%struct.AudioXCorrelateContext = type { ptr, i32, i32, i64, [2 x ptr], [2 x ptr], [2 x ptr], ptr, [2 x ptr], i32, i32, ptr }
%struct.AVRational = type { i32, i32 }
%struct.AVChannelLayout = type { i32, i32, %union.anon.1, ptr }
%union.anon.1 = type { i64 }
%struct.AVFilterLink = type { ptr, ptr, ptr, ptr, i32, i32, i32, i32, %struct.AVRational, i32, i32, i32, %struct.AVChannelLayout, %struct.AVRational, ptr, i32, %struct.AVFilterFormatsConfig, %struct.AVFilterFormatsConfig }
%struct.AVFilterFormatsConfig = type { ptr, ptr, ptr, ptr, ptr }

; Function Attrs: nounwind uwtable
define internal i32 @config_output(ptr noundef %0) #1 {
  %2 = alloca i32, align 4
  %3 = alloca ptr, align 8
  %4 = alloca ptr, align 8
  %5 = alloca ptr, align 8
  %6 = alloca i32, align 4
  store ptr %0, ptr %3, align 8, !tbaa !27
  call void @llvm.lifetime.start.p0(i64 8, ptr %4) #7
  %7 = load ptr, ptr %3, align 8, !tbaa !27
  %8 = getelementptr inbounds nuw %struct.AVFilterLink, ptr %7, i32 0, i32 0
  %9 = load ptr, ptr %8, align 8, !tbaa !56
  store ptr %9, ptr %4, align 8, !tbaa !4
  call void @llvm.lifetime.start.p0(i64 8, ptr %5) #7
  %10 = load ptr, ptr %4, align 8, !tbaa !4
  %11 = getelementptr inbounds nuw %struct.AVFilterContext, ptr %10, i32 0, i32 9
  %12 = load ptr, ptr %11, align 8, !tbaa !9
  store ptr %12, ptr %5, align 8, !tbaa !22
  %13 = load ptr, ptr %5, align 8, !tbaa !22
  %14 = getelementptr inbounds nuw %struct.AudioXCorrelateContext, ptr %13, i32 0, i32 3
  store i64 -9223372036854775808, ptr %14, align 8, !tbaa !39
  %15 = load ptr, ptr %3, align 8, !tbaa !27
  %16 = getelementptr inbounds nuw %struct.AVFilterLink, ptr %15, i32 0, i32 5
  %17 = load i32, ptr %16, align 4, !tbaa !61
  %18 = load ptr, ptr %3, align 8, !tbaa !27
  %19 = getelementptr inbounds nuw %struct.AVFilterLink, ptr %18, i32 0, i32 12
  %20 = getelementptr inbounds nuw %struct.AVChannelLayout, ptr %19, i32 0, i32 1
  %21 = load i32, ptr %20, align 4, !tbaa !62
  %22 = load ptr, ptr %5, align 8, !tbaa !22
  %23 = getelementptr inbounds nuw %struct.AudioXCorrelateContext, ptr %22, i32 0, i32 1
  %24 = load i32, ptr %23, align 8, !tbaa !51
  %25 = call ptr @av_audio_fifo_alloc(i32 noundef %17, i32 noundef %21, i32 noundef %24)
  %26 = load ptr, ptr %5, align 8, !tbaa !22
  %27 = getelementptr inbounds nuw %struct.AudioXCorrelateContext, ptr %26, i32 0, i32 4
  %28 = getelementptr inbounds [2 x ptr], ptr %27, i64 0, i64 0
  store ptr %25, ptr %28, align 8, !tbaa !24
  %29 = load ptr, ptr %3, align 8, !tbaa !27
  %30 = getelementptr inbounds nuw %struct.AVFilterLink, ptr %29, i32 0, i32 5
  %31 = load i32, ptr %30, align 4, !tbaa !61
  %32 = load ptr, ptr %3, align 8, !tbaa !27
  %33 = getelementptr inbounds nuw %struct.AVFilterLink, ptr %32, i32 0, i32 12
  %34 = getelementptr inbounds nuw %struct.AVChannelLayout, ptr %33, i32 0, i32 1
  %35 = load i32, ptr %34, align 4, !tbaa !62
  %36 = load ptr, ptr %5, align 8, !tbaa !22
  %37 = getelementptr inbounds nuw %struct.AudioXCorrelateContext, ptr %36, i32 0, i32 1
  %38 = load i32, ptr %37, align 8, !tbaa !51
  %39 = call ptr @av_audio_fifo_alloc(i32 noundef %31, i32 noundef %35, i32 noundef %38)
  %40 = load ptr, ptr %5, align 8, !tbaa !22
  %41 = getelementptr inbounds nuw %struct.AudioXCorrelateContext, ptr %40, i32 0, i32 4
  %42 = getelementptr inbounds [2 x ptr], ptr %41, i64 0, i64 1
  store ptr %39, ptr %42, align 8, !tbaa !24
  %43 = load ptr, ptr %5, align 8, !tbaa !22
  %44 = getelementptr inbounds nuw %struct.AudioXCorrelateContext, ptr %43, i32 0, i32 4
  %45 = getelementptr inbounds [2 x ptr], ptr %44, i64 0, i64 0
  %46 = load ptr, ptr %45, align 8, !tbaa !24
  %47 = icmp ne ptr %46, null
  br i1 %47, label %48, label %54

48:                                               ; preds = %1
  %49 = load ptr, ptr %5, align 8, !tbaa !22
  %50 = getelementptr inbounds nuw %struct.AudioXCorrelateContext, ptr %49, i32 0, i32 4
  %51 = getelementptr inbounds [2 x ptr], ptr %50, i64 0, i64 1
  %52 = load ptr, ptr %51, align 8, !tbaa !24
  %53 = icmp ne ptr %52, null
  br i1 %53, label %55, label %54

54:                                               ; preds = %48, %1
  store i32 -12, ptr %2, align 4
  store i32 1, ptr %6, align 4
  br label %142

55:                                               ; preds = %48
  %56 = load ptr, ptr %3, align 8, !tbaa !27
  %57 = call ptr @ff_get_audio_buffer(ptr noundef %56, i32 noundef 1)
  %58 = load ptr, ptr %5, align 8, !tbaa !22
  %59 = getelementptr inbounds nuw %struct.AudioXCorrelateContext, ptr %58, i32 0, i32 6
  %60 = getelementptr inbounds [2 x ptr], ptr %59, i64 0, i64 0
  store ptr %57, ptr %60, align 8, !tbaa !29
  %61 = load ptr, ptr %3, align 8, !tbaa !27
  %62 = call ptr @ff_get_audio_buffer(ptr noundef %61, i32 noundef 1)
  %63 = load ptr, ptr %5, align 8, !tbaa !22
  %64 = getelementptr inbounds nuw %struct.AudioXCorrelateContext, ptr %63, i32 0, i32 6
  %65 = getelementptr inbounds [2 x ptr], ptr %64, i64 0, i64 1
  store ptr %62, ptr %65, align 8, !tbaa !29
  %66 = load ptr, ptr %3, align 8, !tbaa !27
  %67 = call ptr @ff_get_audio_buffer(ptr noundef %66, i32 noundef 1)
  %68 = load ptr, ptr %5, align 8, !tbaa !22
  %69 = getelementptr inbounds nuw %struct.AudioXCorrelateContext, ptr %68, i32 0, i32 7
  store ptr %67, ptr %69, align 8, !tbaa !63
  %70 = load ptr, ptr %3, align 8, !tbaa !27
  %71 = call ptr @ff_get_audio_buffer(ptr noundef %70, i32 noundef 1)
  %72 = load ptr, ptr %5, align 8, !tbaa !22
  %73 = getelementptr inbounds nuw %struct.AudioXCorrelateContext, ptr %72, i32 0, i32 8
  %74 = getelementptr inbounds [2 x ptr], ptr %73, i64 0, i64 0
  store ptr %71, ptr %74, align 8, !tbaa !29
  %75 = load ptr, ptr %3, align 8, !tbaa !27
  %76 = call ptr @ff_get_audio_buffer(ptr noundef %75, i32 noundef 1)
  %77 = load ptr, ptr %5, align 8, !tbaa !22
  %78 = getelementptr inbounds nuw %struct.AudioXCorrelateContext, ptr %77, i32 0, i32 8
  %79 = getelementptr inbounds [2 x ptr], ptr %78, i64 0, i64 1
  store ptr %76, ptr %79, align 8, !tbaa !29
  %80 = load ptr, ptr %5, align 8, !tbaa !22
  %81 = getelementptr inbounds nuw %struct.AudioXCorrelateContext, ptr %80, i32 0, i32 6
  %82 = getelementptr inbounds [2 x ptr], ptr %81, i64 0, i64 0
  %83 = load ptr, ptr %82, align 8, !tbaa !29
  %84 = icmp ne ptr %83, null
  br i1 %84, label %85, label %108

85:                                               ; preds = %55
  %86 = load ptr, ptr %5, align 8, !tbaa !22
  %87 = getelementptr inbounds nuw %struct.AudioXCorrelateContext, ptr %86, i32 0, i32 6
  %88 = getelementptr inbounds [2 x ptr], ptr %87, i64 0, i64 1
  %89 = load ptr, ptr %88, align 8, !tbaa !29
  %90 = icmp ne ptr %89, null
  br i1 %90, label %91, label %108

91:                                               ; preds = %85
  %92 = load ptr, ptr %5, align 8, !tbaa !22
  %93 = getelementptr inbounds nuw %struct.AudioXCorrelateContext, ptr %92, i32 0, i32 7
  %94 = load ptr, ptr %93, align 8, !tbaa !63
  %95 = icmp ne ptr %94, null
  br i1 %95, label %96, label %108

96:                                               ; preds = %91
  %97 = load ptr, ptr %5, align 8, !tbaa !22
  %98 = getelementptr inbounds nuw %struct.AudioXCorrelateContext, ptr %97, i32 0, i32 8
  %99 = getelementptr inbounds [2 x ptr], ptr %98, i64 0, i64 0
  %100 = load ptr, ptr %99, align 8, !tbaa !29
  %101 = icmp ne ptr %100, null
  br i1 %101, label %102, label %108

102:                                              ; preds = %96
  %103 = load ptr, ptr %5, align 8, !tbaa !22
  %104 = getelementptr inbounds nuw %struct.AudioXCorrelateContext, ptr %103, i32 0, i32 8
  %105 = getelementptr inbounds [2 x ptr], ptr %104, i64 0, i64 1
  %106 = load ptr, ptr %105, align 8, !tbaa !29
  %107 = icmp ne ptr %106, null
  br i1 %107, label %109, label %108

108:                                              ; preds = %102, %96, %91, %85, %55
  store i32 -12, ptr %2, align 4
  store i32 1, ptr %6, align 4
  br label %142

109:                                              ; preds = %102
  %110 = load ptr, ptr %5, align 8, !tbaa !22
  %111 = getelementptr inbounds nuw %struct.AudioXCorrelateContext, ptr %110, i32 0, i32 2
  %112 = load i32, ptr %111, align 4, !tbaa !64
  switch i32 %112, label %122 [
    i32 0, label %113
    i32 1, label %116
    i32 2, label %119
  ]

113:                                              ; preds = %109
  %114 = load ptr, ptr %5, align 8, !tbaa !22
  %115 = getelementptr inbounds nuw %struct.AudioXCorrelateContext, ptr %114, i32 0, i32 11
  store ptr @xcorrelate_slow_f, ptr %115, align 8, !tbaa !52
  br label %122

116:                                              ; preds = %109
  %117 = load ptr, ptr %5, align 8, !tbaa !22
  %118 = getelementptr inbounds nuw %struct.AudioXCorrelateContext, ptr %117, i32 0, i32 11
  store ptr @xcorrelate_fast_f, ptr %118, align 8, !tbaa !52
  br label %122

119:                                              ; preds = %109
  %120 = load ptr, ptr %5, align 8, !tbaa !22
  %121 = getelementptr inbounds nuw %struct.AudioXCorrelateContext, ptr %120, i32 0, i32 11
  store ptr @xcorrelate_best_f, ptr %121, align 8, !tbaa !52
  br label %122

122:                                              ; preds = %109, %119, %116, %113
  %123 = load ptr, ptr %3, align 8, !tbaa !27
  %124 = getelementptr inbounds nuw %struct.AVFilterLink, ptr %123, i32 0, i32 5
  %125 = load i32, ptr %124, align 4, !tbaa !61
  %126 = icmp eq i32 %125, 9
  br i1 %126, label %127, label %141

127:                                              ; preds = %122
  %128 = load ptr, ptr %5, align 8, !tbaa !22
  %129 = getelementptr inbounds nuw %struct.AudioXCorrelateContext, ptr %128, i32 0, i32 2
  %130 = load i32, ptr %129, align 4, !tbaa !64
  switch i32 %130, label %140 [
    i32 0, label %131
    i32 1, label %134
    i32 2, label %137
  ]

131:                                              ; preds = %127
  %132 = load ptr, ptr %5, align 8, !tbaa !22
  %133 = getelementptr inbounds nuw %struct.AudioXCorrelateContext, ptr %132, i32 0, i32 11
  store ptr @xcorrelate_slow_d, ptr %133, align 8, !tbaa !52
  br label %140

134:                                              ; preds = %127
  %135 = load ptr, ptr %5, align 8, !tbaa !22
  %136 = getelementptr inbounds nuw %struct.AudioXCorrelateContext, ptr %135, i32 0, i32 11
  store ptr @xcorrelate_fast_d, ptr %136, align 8, !tbaa !52
  br label %140

137:                                              ; preds = %127
  %138 = load ptr, ptr %5, align 8, !tbaa !22
  %139 = getelementptr inbounds nuw %struct.AudioXCorrelateContext, ptr %138, i32 0, i32 11
  store ptr @xcorrelate_best_d, ptr %139, align 8, !tbaa !52
  br label %140

140:                                              ; preds = %127, %137, %134, %131
  br label %141

141:                                              ; preds = %140, %122
  store i32 0, ptr %2, align 4
  store i32 1, ptr %6, align 4
  br label %142

142:                                              ; preds = %141, %108, %54
  call void @llvm.lifetime.end.p0(i64 8, ptr %5) #7
  call void @llvm.lifetime.end.p0(i64 8, ptr %4) #7
  %143 = load i32, ptr %2, align 4
  ret i32 %143
}