; Function Attrs: nounwind uwtable
define internal range(i32 -12, 1) i32 @config_output(ptr noundef %0) #1 {
  %2 = load ptr, ptr %0, align 8, !tbaa !51
  %3 = getelementptr inbounds nuw i8, ptr %2, i64 72
  %4 = load ptr, ptr %3, align 8, !tbaa !4
  %5 = getelementptr inbounds nuw i8, ptr %4, i64 16
  store i64 -9223372036854775808, ptr %5, align 8, !tbaa !34
  %6 = getelementptr inbounds nuw i8, ptr %0, i64 36
  %7 = load i32, ptr %6, align 4, !tbaa !57
  %8 = getelementptr inbounds nuw i8, ptr %0, i64 76
  %9 = load i32, ptr %8, align 4, !tbaa !58
  %10 = getelementptr inbounds nuw i8, ptr %4, i64 8
  %11 = load i32, ptr %10, align 8, !tbaa !46
  %12 = tail call ptr @av_audio_fifo_alloc(i32 noundef %7, i32 noundef %9, i32 noundef %11) #7
  %13 = getelementptr inbounds nuw i8, ptr %4, i64 24
  store ptr %12, ptr %13, align 8, !tbaa !20
  %14 = load i32, ptr %6, align 4, !tbaa !57
  %15 = load i32, ptr %8, align 4, !tbaa !58
  %16 = load i32, ptr %10, align 8, !tbaa !46
  %17 = tail call ptr @av_audio_fifo_alloc(i32 noundef %14, i32 noundef %15, i32 noundef %16) #7
  %18 = getelementptr inbounds nuw i8, ptr %4, i64 32
  store ptr %17, ptr %18, align 8, !tbaa !20
  %19 = load ptr, ptr %13, align 8, !tbaa !20
  %.not = icmp eq ptr %19, null
  %.not37 = icmp eq ptr %17, null
  %or.cond = select i1 %.not, i1 true, i1 %.not37
  br i1 %or.cond, label %50, label %20

20:                                               ; preds = %1
  %21 = tail call ptr @ff_get_audio_buffer(ptr noundef nonnull %0, i32 noundef 1) #7
  %22 = getelementptr inbounds nuw i8, ptr %4, i64 56
  store ptr %21, ptr %22, align 8, !tbaa !25
  %23 = tail call ptr @ff_get_audio_buffer(ptr noundef nonnull %0, i32 noundef 1) #7
  %24 = getelementptr inbounds nuw i8, ptr %4, i64 64
  store ptr %23, ptr %24, align 8, !tbaa !25
  %25 = tail call ptr @ff_get_audio_buffer(ptr noundef nonnull %0, i32 noundef 1) #7
  %26 = getelementptr inbounds nuw i8, ptr %4, i64 72
  store ptr %25, ptr %26, align 8, !tbaa !59
  %27 = tail call ptr @ff_get_audio_buffer(ptr noundef nonnull %0, i32 noundef 1) #7
  %28 = getelementptr inbounds nuw i8, ptr %4, i64 80
  store ptr %27, ptr %28, align 8, !tbaa !25
  %29 = tail call ptr @ff_get_audio_buffer(ptr noundef nonnull %0, i32 noundef 1) #7
  %30 = getelementptr inbounds nuw i8, ptr %4, i64 88
  store ptr %29, ptr %30, align 8, !tbaa !25
  %31 = load ptr, ptr %22, align 8, !tbaa !25
  %.not38 = icmp eq ptr %31, null
  br i1 %.not38, label %50, label %32

32:                                               ; preds = %20
  %33 = load ptr, ptr %24, align 8, !tbaa !25
  %.not39 = icmp eq ptr %33, null
  br i1 %.not39, label %50, label %34

34:                                               ; preds = %32
  %35 = load ptr, ptr %26, align 8, !tbaa !59
  %.not40 = icmp eq ptr %35, null
  br i1 %.not40, label %50, label %36

36:                                               ; preds = %34
  %37 = load ptr, ptr %28, align 8, !tbaa !25
  %.not41 = icmp eq ptr %37, null
  %.not42 = icmp eq ptr %29, null
  %or.cond43 = select i1 %.not41, i1 true, i1 %.not42
  br i1 %or.cond43, label %50, label %38

38:                                               ; preds = %36
  %39 = getelementptr inbounds nuw i8, ptr %4, i64 12
  %40 = load i32, ptr %39, align 4, !tbaa !60
  %41 = icmp ult i32 %40, 3
  br i1 %41, label %switch.lookup, label %44

switch.lookup:                                    ; preds = %38
  %42 = zext nneg i32 %40 to i64
  %switch.gep = getelementptr inbounds nuw [3 x ptr], ptr @switch.table.config_output, i64 0, i64 %42
  %switch.load = load ptr, ptr %switch.gep, align 8
  %43 = getelementptr inbounds nuw i8, ptr %4, i64 104
  store ptr %switch.load, ptr %43, align 8, !tbaa !47
  br label %44

44:                                               ; preds = %38, %switch.lookup
  %45 = load i32, ptr %6, align 4, !tbaa !57
  %46 = icmp eq i32 %45, 9
  %47 = icmp ult i32 %40, 3
  %or.cond48 = and i1 %46, %47
  br i1 %or.cond48, label %switch.lookup45, label %50

switch.lookup45:                                  ; preds = %44
  %48 = zext nneg i32 %40 to i64
  %switch.gep46 = getelementptr inbounds nuw [3 x ptr], ptr @switch.table.config_output.1, i64 0, i64 %48
  %switch.load47 = load ptr, ptr %switch.gep46, align 8
  %49 = getelementptr inbounds nuw i8, ptr %4, i64 104
  store ptr %switch.load47, ptr %49, align 8, !tbaa !47
  br label %50

50:                                               ; preds = %switch.lookup45, %44, %20, %32, %34, %36, %1
  %.0 = phi i32 [ -12, %1 ], [ -12, %36 ], [ -12, %34 ], [ -12, %32 ], [ -12, %20 ], [ 0, %44 ], [ 0, %switch.lookup45 ]
  ret i32 %.0
}